Archive member included because of file (symbol)

/u/wbcowan/gnuarm-4.0.2/lib/gcc/arm-elf/4.0.2/libgcc.a(_udivsi3.o)
                              bwio.o (__udivsi3)
/u/wbcowan/gnuarm-4.0.2/lib/gcc/arm-elf/4.0.2/libgcc.a(_umodsi3.o)
                              bwio.o (__umodsi3)
/u/wbcowan/gnuarm-4.0.2/lib/gcc/arm-elf/4.0.2/libgcc.a(_dvmd_tls.o)
                              /u/wbcowan/gnuarm-4.0.2/lib/gcc/arm-elf/4.0.2/libgcc.a(_udivsi3.o) (__div0)

Memory Configuration

Name             Origin             Length             Attributes
ram              0x0000000000000000 0x0000000002000000
rom              0x0000000060000000 0x0000000000800000
rim              0x0000000060000000 0x0000000000800000
*default*        0x0000000000000000 0xffffffffffffffff

Linker script and memory map


data            0x0000000000000000        0x0
                0x0000000000000000                _DataStart = .
 *(.data)
                0x0000000000000000                _DataEnd = .

bss             0x0000000000000000        0x0
                0x0000000000000000                _BssStart = .
 *(.bss)
                0x0000000000000000                _BssEnd = .

text            0x0000000000000000     0x1c0a
 *(.text)
 .text          0x0000000000000000      0x678 bwio.o
                0x0000000000000178                bwputr
                0x0000000000000624                bwassert
                0x0000000000000488                bwi2a
                0x0000000000000000                bwsetfifo
                0x00000000000000c0                bwputc
                0x0000000000000314                bwa2d
                0x000000000000003c                bwsetspeed
                0x0000000000000114                c2x
                0x0000000000000354                bwa2i
                0x00000000000002c4                bwgetc
                0x00000000000003ac                bwui2a
                0x00000000000004a4                bwformat
                0x0000000000000208                bwputw
                0x0000000000000604                bwprintf
                0x0000000000000134                bwputx
                0x00000000000001bc                bwputstr
 .text          0x0000000000000678      0x124 pkstring.o
                0x0000000000000730                pkstrcpy
                0x0000000000000678                pkmemcpy
                0x00000000000006d4                pkstrlen
 .text          0x000000000000079c       0xf8 buffer.o
                0x0000000000000850                bufferLength
                0x00000000000007b0                addToBuffer
                0x00000000000007ec                getFromBuffer
                0x000000000000079c                circularBufferInit
                0x0000000000000838                isBufferEmpty
 .text          0x0000000000000894      0x20c td.o
                0x00000000000008dc                checkMail
                0x0000000000000a3c                initTD
                0x000000000000098c                putMail
                0x0000000000000894                messageInit
                0x00000000000008c8                initInbox
 .text          0x0000000000000aa0      0x5f0 kernelHandler.o
                0x0000000000000e3c                kernel_queuePop_priority
                0x0000000000000f84                kernelRun
                0x0000000000000b3c                free_Push
                0x0000000000000c28                kernel_queuePush
                0x0000000000000ef8                kernel_queuePop
                0x0000000000000cb8                initKernel
                0x0000000000000aa0                free_Pop
                0x0000000000000b94                setTask
                0x0000000000000afc                getNextTID
 .text          0x0000000000001090      0x170 userRequestCall.o
                0x0000000000001164                Send
                0x00000000000010ec                MyParentTid
                0x0000000000001114                Pass
                0x0000000000001098                Create
                0x00000000000011a0                Receive
                0x00000000000011d0                Reply
                0x00000000000010c4                MyTid
                0x000000000000113c                Exit
                0x0000000000001090                user_contextswitch
 .text          0x0000000000001200      0x558 kernelRequestCall.o
                0x0000000000001214                kernel_MyParentTid
                0x00000000000014f0                kernel_Receive
                0x0000000000001238                kernel_Exit
                0x00000000000013f4                processMail
                0x0000000000001528                kernel_Send
                0x0000000000001200                kernel_MyTid
                0x0000000000001228                kernel_Pass
                0x0000000000001368                kernel_Create
                0x0000000000001268                kernel_Reply
                0x0000000000001690                processRequest
 .text          0x0000000000001758       0x7c interruptHandler.o
                0x0000000000001758                activate
 .text          0x00000000000017d4      0x148 k1.o
                0x00000000000017d4                otherUserTask
                0x0000000000001840                firstUserTask
                0x00000000000018f0                main
 .text          0x000000000000191c      0x110 /u/wbcowan/gnuarm-4.0.2/lib/gcc/arm-elf/4.0.2/libgcc.a(_udivsi3.o)
                0x000000000000191c                __udivsi3
                0x0000000000001a14                __aeabi_uidivmod
 .text          0x0000000000001a2c       0xcc /u/wbcowan/gnuarm-4.0.2/lib/gcc/arm-elf/4.0.2/libgcc.a(_umodsi3.o)
                0x0000000000001a2c                __umodsi3
 .text          0x0000000000001af8        0x4 /u/wbcowan/gnuarm-4.0.2/lib/gcc/arm-elf/4.0.2/libgcc.a(_dvmd_tls.o)
                0x0000000000001af8                __aeabi_ldiv0
                0x0000000000001af8                __div0
                0x0000000000001af8                __aeabi_idiv0
 *(.got)
 .got           0x0000000000001afc        0x8 bwio.o
 *(.got.plt)
 .got.plt       0x0000000000001b04        0xc bwio.o
                0x0000000000001b04                _GLOBAL_OFFSET_TABLE_
 *(.rodata)
 *(.glue_7)
 *(.glue_7t)
 *(.rodata.str1.4)
 .rodata.str1.4
                0x0000000000001b10       0x16 bwio.o
                                         0x18 (size before relaxing)
 *fill*         0x0000000000001b26        0x2 00
 .rodata.str1.4
                0x0000000000001b28       0x3f kernelHandler.o
                                         0x40 (size before relaxing)
 *fill*         0x0000000000001b67        0x1 00
 .rodata.str1.4
                0x0000000000001b68       0xa2 k1.o
                                         0xa4 (size before relaxing)

.rel.dyn
LOAD bwio.o
LOAD pkstring.o
LOAD buffer.o
LOAD td.o
LOAD kernelHandler.o
LOAD userRequestCall.o
LOAD kernelRequestCall.o
LOAD interruptHandler.o
LOAD k1.o
LOAD /u/wbcowan/gnuarm-4.0.2/lib/gcc/arm-elf/4.0.2/libgcc.a
OUTPUT(k1.elf elf32-littlearm)

.comment        0x0000000000000000       0xa2
 .comment       0x0000000000000000       0x12 bwio.o
 .comment       0x0000000000000012       0x12 pkstring.o
 .comment       0x0000000000000024       0x12 buffer.o
 .comment       0x0000000000000036       0x12 td.o
 .comment       0x0000000000000048       0x12 kernelHandler.o
 .comment       0x000000000000005a       0x12 userRequestCall.o
 .comment       0x000000000000006c       0x12 kernelRequestCall.o
 .comment       0x000000000000007e       0x12 interruptHandler.o
 .comment       0x0000000000000090       0x12 k1.o

.debug_line     0x0000000000000000      0x14f
 .debug_line    0x0000000000000000       0x86 /u/wbcowan/gnuarm-4.0.2/lib/gcc/arm-elf/4.0.2/libgcc.a(_udivsi3.o)
 .debug_line    0x0000000000000086       0x6f /u/wbcowan/gnuarm-4.0.2/lib/gcc/arm-elf/4.0.2/libgcc.a(_umodsi3.o)
 .debug_line    0x00000000000000f5       0x5a /u/wbcowan/gnuarm-4.0.2/lib/gcc/arm-elf/4.0.2/libgcc.a(_dvmd_tls.o)

.debug_info     0x0000000000000000      0x153
 .debug_info    0x0000000000000000       0x71 /u/wbcowan/gnuarm-4.0.2/lib/gcc/arm-elf/4.0.2/libgcc.a(_udivsi3.o)
 .debug_info    0x0000000000000071       0x71 /u/wbcowan/gnuarm-4.0.2/lib/gcc/arm-elf/4.0.2/libgcc.a(_umodsi3.o)
 .debug_info    0x00000000000000e2       0x71 /u/wbcowan/gnuarm-4.0.2/lib/gcc/arm-elf/4.0.2/libgcc.a(_dvmd_tls.o)

.debug_abbrev   0x0000000000000000       0x3c
 .debug_abbrev  0x0000000000000000       0x14 /u/wbcowan/gnuarm-4.0.2/lib/gcc/arm-elf/4.0.2/libgcc.a(_udivsi3.o)
 .debug_abbrev  0x0000000000000014       0x14 /u/wbcowan/gnuarm-4.0.2/lib/gcc/arm-elf/4.0.2/libgcc.a(_umodsi3.o)
 .debug_abbrev  0x0000000000000028       0x14 /u/wbcowan/gnuarm-4.0.2/lib/gcc/arm-elf/4.0.2/libgcc.a(_dvmd_tls.o)

.debug_aranges  0x0000000000000000       0x60
 .debug_aranges
                0x0000000000000000       0x20 /u/wbcowan/gnuarm-4.0.2/lib/gcc/arm-elf/4.0.2/libgcc.a(_udivsi3.o)
 .debug_aranges
                0x0000000000000020       0x20 /u/wbcowan/gnuarm-4.0.2/lib/gcc/arm-elf/4.0.2/libgcc.a(_umodsi3.o)
 .debug_aranges
                0x0000000000000040       0x20 /u/wbcowan/gnuarm-4.0.2/lib/gcc/arm-elf/4.0.2/libgcc.a(_dvmd_tls.o)
