Archive member included because of file (symbol)

/u/wbcowan/gnuarm-4.0.2/lib/gcc/arm-elf/4.0.2/libgcc.a(_udivsi3.o)
                              bwio.o (__udivsi3)
/u/wbcowan/gnuarm-4.0.2/lib/gcc/arm-elf/4.0.2/libgcc.a(_umodsi3.o)
                              bwio.o (__umodsi3)
/u/wbcowan/gnuarm-4.0.2/lib/gcc/arm-elf/4.0.2/libgcc.a(_dvmd_tls.o)
                              /u/wbcowan/gnuarm-4.0.2/lib/gcc/arm-elf/4.0.2/libgcc.a(_udivsi3.o) (__div0)
/u/wbcowan/gnuarm-4.0.2/lib/gcc/arm-elf/4.0.2/libgcc.a(_addsubdf3.o)
                              debugtime.o (__floatsidf)
/u/wbcowan/gnuarm-4.0.2/lib/gcc/arm-elf/4.0.2/libgcc.a(_muldivdf3.o)
                              debugtime.o (__muldf3)
/u/wbcowan/gnuarm-4.0.2/lib/gcc/arm-elf/4.0.2/libgcc.a(_fixdfsi.o)
                              debugtime.o (__fixdfsi)

Memory Configuration

Name             Origin             Length             Attributes
ram              0x0000000000000000 0x0000000002000000
rom              0x0000000060000000 0x0000000000800000
rim              0x0000000060000000 0x0000000000800000
*default*        0x0000000000000000 0xffffffffffffffff

Linker script and memory map


data            0x0000000000000000        0x0
                0x0000000000000000                _DataStart = .
 *(.data)
                0x0000000000000000                _DataEnd = .

bss             0x0000000000000000        0x0
                0x0000000000000000                _BssStart = .
 *(.bss)
                0x0000000000000000                _BssEnd = .

text            0x0000000000000000     0x3ff7
 *(.text)
 .text          0x0000000000000000      0x66c bwio.o
                0x0000000000000170                bwputr
                0x0000000000000618                bwassert
                0x000000000000047c                bwi2a
                0x0000000000000000                bwsetfifo
                0x00000000000000c0                bwputc
                0x0000000000000308                bwa2d
                0x000000000000003c                bwsetspeed
                0x000000000000010c                c2x
                0x0000000000000348                bwa2i
                0x00000000000002bc                bwgetc
                0x00000000000003a0                bwui2a
                0x0000000000000498                bwformat
                0x0000000000000200                bwputw
                0x00000000000005f8                bwprintf
                0x000000000000012c                bwputx
                0x00000000000001b4                bwputstr
 .text          0x000000000000066c       0x5c debugtime.o
                0x000000000000068c                getTime
                0x000000000000066c                startTime
 .text          0x00000000000006c8      0x3c0 pkstring.o
                0x0000000000000780                pkstrcpy
                0x00000000000007ec                pkstreql
                0x0000000000000a64                pkstreq
                0x0000000000000924                pkstrcmp_volatile
                0x00000000000006c8                pkmemcpy
                0x00000000000008b8                pkstrcpy_volatile
                0x00000000000009c4                pkstrcmp
                0x0000000000000724                pkstrlen
 .text          0x0000000000000a88      0x594 dictionary.o
                0x0000000000000b14                initTIDLookup
                0x0000000000000eb0                searchDictionary
                0x0000000000000ab4                initHashMap
                0x0000000000000b40                initDictionary
                0x0000000000000df8                deleteHashMap
                0x0000000000000ee4                addDictionary
                0x0000000000000ce4                insertHashMap
                0x0000000000000fd0                deleteDictionary
                0x0000000000000c34                searchHashMap
                0x0000000000000a88                initHashEntry
                0x0000000000000ba0                hashCode
 .text          0x000000000000101c       0xf8 buffer.o
                0x00000000000010d0                bufferLength
                0x0000000000001030                addToBuffer
                0x000000000000106c                getFromBuffer
                0x000000000000101c                circularBufferInit
                0x00000000000010b8                isBufferEmpty
 .text          0x0000000000001114      0x20c td.o
                0x000000000000115c                checkMail
                0x00000000000012bc                initTD
                0x000000000000120c                putMail
                0x0000000000001114                messageInit
                0x0000000000001148                initInbox
 .text          0x0000000000001320      0x5f0 kernelHandler.o
                0x00000000000016bc                kernel_queuePop_priority
                0x0000000000001804                kernelRun
                0x00000000000013bc                free_Push
                0x00000000000014a8                kernel_queuePush
                0x0000000000001778                kernel_queuePop
                0x0000000000001538                initKernel
                0x0000000000001320                free_Pop
                0x0000000000001414                setTask
                0x000000000000137c                getNextTID
 .text          0x0000000000001910      0x170 userRequestCall.o
                0x00000000000019e4                Send
                0x000000000000196c                MyParentTid
                0x0000000000001994                Pass
                0x0000000000001918                Create
                0x0000000000001a20                Receive
                0x0000000000001a50                Reply
                0x0000000000001944                MyTid
                0x00000000000019bc                Exit
                0x0000000000001910                user_contextswitch
 .text          0x0000000000001a80      0x5d4 kernelRequestCall.o
                0x0000000000001a94                kernel_MyParentTid
                0x0000000000001dc0                kernel_Receive
                0x0000000000001ab8                kernel_Exit
                0x0000000000001cac                processMail
                0x0000000000001df8                kernel_Send
                0x0000000000001a80                kernel_MyTid
                0x0000000000001aa8                kernel_Pass
                0x0000000000001c20                kernel_Create
                0x0000000000001ae8                kernel_Reply
                0x0000000000001f8c                processRequest
 .text          0x0000000000002054       0x80 interruptHandler.o
                0x0000000000002054                activate
 .text          0x00000000000020d4     0x11f8 k2.o
                0x0000000000002fc0                player4
                0x0000000000003210                God
                0x0000000000002d70                player3
                0x00000000000020d4                strlength
                0x00000000000028d0                player1
                0x0000000000002100                strequal
                0x000000000000328c                main
                0x0000000000002b20                player2
                0x0000000000002104                referee
 .text          0x00000000000032cc      0x110 /u/wbcowan/gnuarm-4.0.2/lib/gcc/arm-elf/4.0.2/libgcc.a(_udivsi3.o)
                0x00000000000032cc                __udivsi3
                0x00000000000033c4                __aeabi_uidivmod
 .text          0x00000000000033dc       0xcc /u/wbcowan/gnuarm-4.0.2/lib/gcc/arm-elf/4.0.2/libgcc.a(_umodsi3.o)
                0x00000000000033dc                __umodsi3
 .text          0x00000000000034a8        0x4 /u/wbcowan/gnuarm-4.0.2/lib/gcc/arm-elf/4.0.2/libgcc.a(_dvmd_tls.o)
                0x00000000000034a8                __aeabi_ldiv0
                0x00000000000034a8                __div0
                0x00000000000034a8                __aeabi_idiv0
 .text          0x00000000000034ac      0x400 /u/wbcowan/gnuarm-4.0.2/lib/gcc/arm-elf/4.0.2/libgcc.a(_addsubdf3.o)
                0x0000000000003840                __floatdidf
                0x00000000000037c0                __floatsidf
                0x0000000000003798                __aeabi_ui2d
                0x00000000000034ac                __aeabi_drsub
                0x00000000000037ec                __extendsfdf2
                0x00000000000034b8                __adddf3
                0x0000000000003798                __floatunsidf
                0x00000000000034b8                __aeabi_dadd
                0x000000000000382c                __aeabi_ul2d
                0x00000000000034b4                __aeabi_dsub
                0x000000000000382c                __floatundidf
                0x00000000000037c0                __aeabi_i2d
                0x0000000000003840                __aeabi_l2d
                0x00000000000037ec                __aeabi_f2d
                0x00000000000034b4                __subdf3
 .text          0x00000000000038ac      0x470 /u/wbcowan/gnuarm-4.0.2/lib/gcc/arm-elf/4.0.2/libgcc.a(_muldivdf3.o)
                0x0000000000003b18                __aeabi_ddiv
                0x00000000000038ac                __aeabi_dmul
                0x0000000000003b18                __divdf3
                0x00000000000038ac                __muldf3
 .text          0x0000000000003d1c       0x5c /u/wbcowan/gnuarm-4.0.2/lib/gcc/arm-elf/4.0.2/libgcc.a(_fixdfsi.o)
                0x0000000000003d1c                __fixdfsi
                0x0000000000003d1c                __aeabi_d2iz
 *(.got)
 .got           0x0000000000003d78       0x1c bwio.o
 *(.got.plt)
 .got.plt       0x0000000000003d94        0xc bwio.o
                0x0000000000003d94                _GLOBAL_OFFSET_TABLE_
 *(.rodata)
 *(.glue_7)
 *(.glue_7t)
 *(.rodata.str1.4)
 .rodata.str1.4
                0x0000000000003da0       0x16 bwio.o
                                         0x18 (size before relaxing)
 .rodata.str1.4
                0x0000000000003db6        0x0 dictionary.o
                                          0x4 (size before relaxing)
 *fill*         0x0000000000003db6        0x2 00
 .rodata.str1.4
                0x0000000000003db8       0x3f kernelHandler.o
                                         0x40 (size before relaxing)
 *fill*         0x0000000000003df7        0x1 00
 .rodata.str1.4
                0x0000000000003df8      0x1ff k2.o
                                        0x200 (size before relaxing)

.rel.dyn
LOAD bwio.o
LOAD debugtime.o
LOAD pkstring.o
LOAD dictionary.o
LOAD buffer.o
LOAD td.o
LOAD kernelHandler.o
LOAD userRequestCall.o
LOAD kernelRequestCall.o
LOAD interruptHandler.o
LOAD k2.o
LOAD /u/wbcowan/gnuarm-4.0.2/lib/gcc/arm-elf/4.0.2/libgcc.a
OUTPUT(k2.elf elf32-littlearm)

.comment        0x0000000000000000       0xc6
 .comment       0x0000000000000000       0x12 bwio.o
 .comment       0x0000000000000012       0x12 debugtime.o
 .comment       0x0000000000000024       0x12 pkstring.o
 .comment       0x0000000000000036       0x12 dictionary.o
 .comment       0x0000000000000048       0x12 buffer.o
 .comment       0x000000000000005a       0x12 td.o
 .comment       0x000000000000006c       0x12 kernelHandler.o
 .comment       0x000000000000007e       0x12 userRequestCall.o
 .comment       0x0000000000000090       0x12 kernelRequestCall.o
 .comment       0x00000000000000a2       0x12 interruptHandler.o
 .comment       0x00000000000000b4       0x12 k2.o

.debug_line     0x0000000000000000      0x595
 .debug_line    0x0000000000000000       0x86 /u/wbcowan/gnuarm-4.0.2/lib/gcc/arm-elf/4.0.2/libgcc.a(_udivsi3.o)
 .debug_line    0x0000000000000086       0x6f /u/wbcowan/gnuarm-4.0.2/lib/gcc/arm-elf/4.0.2/libgcc.a(_umodsi3.o)
 .debug_line    0x00000000000000f5       0x5a /u/wbcowan/gnuarm-4.0.2/lib/gcc/arm-elf/4.0.2/libgcc.a(_dvmd_tls.o)
 .debug_line    0x000000000000014f      0x1e1 /u/wbcowan/gnuarm-4.0.2/lib/gcc/arm-elf/4.0.2/libgcc.a(_addsubdf3.o)
 .debug_line    0x0000000000000330      0x1f6 /u/wbcowan/gnuarm-4.0.2/lib/gcc/arm-elf/4.0.2/libgcc.a(_muldivdf3.o)
 .debug_line    0x0000000000000526       0x6f /u/wbcowan/gnuarm-4.0.2/lib/gcc/arm-elf/4.0.2/libgcc.a(_fixdfsi.o)

.debug_info     0x0000000000000000      0x2a3
 .debug_info    0x0000000000000000       0x71 /u/wbcowan/gnuarm-4.0.2/lib/gcc/arm-elf/4.0.2/libgcc.a(_udivsi3.o)
 .debug_info    0x0000000000000071       0x71 /u/wbcowan/gnuarm-4.0.2/lib/gcc/arm-elf/4.0.2/libgcc.a(_umodsi3.o)
 .debug_info    0x00000000000000e2       0x71 /u/wbcowan/gnuarm-4.0.2/lib/gcc/arm-elf/4.0.2/libgcc.a(_dvmd_tls.o)
 .debug_info    0x0000000000000153       0x70 /u/wbcowan/gnuarm-4.0.2/lib/gcc/arm-elf/4.0.2/libgcc.a(_addsubdf3.o)
 .debug_info    0x00000000000001c3       0x70 /u/wbcowan/gnuarm-4.0.2/lib/gcc/arm-elf/4.0.2/libgcc.a(_muldivdf3.o)
 .debug_info    0x0000000000000233       0x70 /u/wbcowan/gnuarm-4.0.2/lib/gcc/arm-elf/4.0.2/libgcc.a(_fixdfsi.o)

.debug_abbrev   0x0000000000000000       0x78
 .debug_abbrev  0x0000000000000000       0x14 /u/wbcowan/gnuarm-4.0.2/lib/gcc/arm-elf/4.0.2/libgcc.a(_udivsi3.o)
 .debug_abbrev  0x0000000000000014       0x14 /u/wbcowan/gnuarm-4.0.2/lib/gcc/arm-elf/4.0.2/libgcc.a(_umodsi3.o)
 .debug_abbrev  0x0000000000000028       0x14 /u/wbcowan/gnuarm-4.0.2/lib/gcc/arm-elf/4.0.2/libgcc.a(_dvmd_tls.o)
 .debug_abbrev  0x000000000000003c       0x14 /u/wbcowan/gnuarm-4.0.2/lib/gcc/arm-elf/4.0.2/libgcc.a(_addsubdf3.o)
 .debug_abbrev  0x0000000000000050       0x14 /u/wbcowan/gnuarm-4.0.2/lib/gcc/arm-elf/4.0.2/libgcc.a(_muldivdf3.o)
 .debug_abbrev  0x0000000000000064       0x14 /u/wbcowan/gnuarm-4.0.2/lib/gcc/arm-elf/4.0.2/libgcc.a(_fixdfsi.o)

.debug_aranges  0x0000000000000000       0xc0
 .debug_aranges
                0x0000000000000000       0x20 /u/wbcowan/gnuarm-4.0.2/lib/gcc/arm-elf/4.0.2/libgcc.a(_udivsi3.o)
 .debug_aranges
                0x0000000000000020       0x20 /u/wbcowan/gnuarm-4.0.2/lib/gcc/arm-elf/4.0.2/libgcc.a(_umodsi3.o)
 .debug_aranges
                0x0000000000000040       0x20 /u/wbcowan/gnuarm-4.0.2/lib/gcc/arm-elf/4.0.2/libgcc.a(_dvmd_tls.o)
 .debug_aranges
                0x0000000000000060       0x20 /u/wbcowan/gnuarm-4.0.2/lib/gcc/arm-elf/4.0.2/libgcc.a(_addsubdf3.o)
 .debug_aranges
                0x0000000000000080       0x20 /u/wbcowan/gnuarm-4.0.2/lib/gcc/arm-elf/4.0.2/libgcc.a(_muldivdf3.o)
 .debug_aranges
                0x00000000000000a0       0x20 /u/wbcowan/gnuarm-4.0.2/lib/gcc/arm-elf/4.0.2/libgcc.a(_fixdfsi.o)
